target datalayout = "e-m:e-p270:32:32-p271:32:32-p272:64:64-i64:64-i128:128-f80:128-n8:16:32:64-S128"
target triple = "x86_64-pc-linux-gnu"

%struct.hashmap_entry = type { ptr, i32 }
%struct.object_id = type { [32 x i8], i32 }
%struct.refname_hash_entry = type { %struct.hashmap_entry, %struct.object_id, i32, [0 x i8] }

@.str.190 = private unnamed_addr constant [27 x i8] c"size_t overflow: %lu + %lu\00", align 1

; Function Attrs: inlinehint nounwind uwtable
define internal void @oidcpy(ptr noundef %0, ptr noundef %1) #5 {
  %3 = alloca ptr, align 8
  %4 = alloca ptr, align 8
  store ptr %0, ptr %3, align 8, !tbaa !84
  store ptr %1, ptr %4, align 8, !tbaa !84
  %5 = load ptr, ptr %3, align 8, !tbaa !84
  %6 = getelementptr inbounds nuw %struct.object_id, ptr %5, i32 0, i32 0
  %7 = getelementptr inbounds [32 x i8], ptr %6, i64 0, i64 0
  %8 = load ptr, ptr %4, align 8, !tbaa !84
  %9 = getelementptr inbounds nuw %struct.object_id, ptr %8, i32 0, i32 0
  %10 = getelementptr inbounds [32 x i8], ptr %9, i64 0, i64 0
  call void @llvm.memcpy.p0.p0.i64(ptr align 4 %7, ptr align 4 %10, i64 32, i1 false)
  %11 = load ptr, ptr %4, align 8, !tbaa !84
  %12 = getelementptr inbounds nuw %struct.object_id, ptr %11, i32 0, i32 1
  %13 = load i32, ptr %12, align 4, !tbaa !259
  %14 = load ptr, ptr %3, align 8, !tbaa !84
  %15 = getelementptr inbounds nuw %struct.object_id, ptr %14, i32 0, i32 1
  store i32 %13, ptr %15, align 4, !tbaa !259
  ret void
}

; Function Attrs: inlinehint nounwind uwtable
define internal void @hashmap_entry_init(ptr noundef %0, i32 noundef %1) #5 {
  %3 = alloca ptr, align 8
  %4 = alloca i32, align 4
  store ptr %0, ptr %3, align 8, !tbaa !261
  store i32 %1, ptr %4, align 4, !tbaa !4
  %5 = load i32, ptr %4, align 4, !tbaa !4
  %6 = load ptr, ptr %3, align 8, !tbaa !261
  %7 = getelementptr inbounds nuw %struct.hashmap_entry, ptr %6, i32 0, i32 1
  store i32 %5, ptr %7, align 8, !tbaa !262
  %8 = load ptr, ptr %3, align 8, !tbaa !261
  %9 = getelementptr inbounds nuw %struct.hashmap_entry, ptr %8, i32 0, i32 0
  store ptr null, ptr %9, align 8, !tbaa !263
  ret void
}

; Function Attrs: inlinehint nounwind uwtable
define internal i64 @st_add(i64 noundef %0, i64 noundef %1) #5 {
  %3 = alloca i64, align 8
  %4 = alloca i64, align 8
  store i64 %0, ptr %3, align 8, !tbaa !173
  store i64 %1, ptr %4, align 8, !tbaa !173
  %5 = load i64, ptr %4, align 8, !tbaa !173
  %6 = load i64, ptr %3, align 8, !tbaa !173
  %7 = sub i64 -1, %6
  %8 = icmp ugt i64 %5, %7
  br i1 %8, label %9, label %12

9:                                                ; preds = %2
  %10 = load i64, ptr %3, align 8, !tbaa !173
  %11 = load i64, ptr %4, align 8, !tbaa !173
  call void (ptr, ...) @die(ptr noundef @.str.190, i64 noundef %10, i64 noundef %11) #12
  unreachable

12:                                               ; preds = %2
  %13 = load i64, ptr %3, align 8, !tbaa !173
  %14 = load i64, ptr %4, align 8, !tbaa !173
  %15 = add i64 %13, %14
  ret i64 %15
}

; Function Attrs: nounwind uwtable
define internal ptr @refname_hash_add(ptr noundef %0, ptr noundef %1, ptr noundef %2) #0 {
  %4 = alloca ptr, align 8
  %5 = alloca ptr, align 8
  %6 = alloca ptr, align 8
  %7 = alloca ptr, align 8
  %8 = alloca i64, align 8
  %9 = alloca i64, align 8
  store ptr %0, ptr %4, align 8, !tbaa !257
  store ptr %1, ptr %5, align 8, !tbaa !11
  store ptr %2, ptr %6, align 8, !tbaa !84
  call void @llvm.lifetime.start.p0(i64 8, ptr %7) #11
  call void @llvm.lifetime.start.p0(i64 8, ptr %8) #11
  %10 = load ptr, ptr %5, align 8, !tbaa !11
  %11 = call i64 @strlen(ptr noundef %10) #13
  store i64 %11, ptr %8, align 8, !tbaa !173
  br label %12

12:                                               ; preds = %3
  call void @llvm.lifetime.start.p0(i64 8, ptr %9) #11
  %13 = load i64, ptr %8, align 8, !tbaa !173
  store i64 %13, ptr %9, align 8, !tbaa !173
  %14 = load i64, ptr %9, align 8, !tbaa !173
  %15 = call i64 @st_add(i64 noundef 56, i64 noundef %14)
  %16 = call i64 @st_add(i64 noundef %15, i64 noundef 1)
  %17 = call ptr @xcalloc(i64 noundef 1, i64 noundef %16)
  store ptr %17, ptr %7, align 8, !tbaa !222
  %18 = load ptr, ptr %7, align 8, !tbaa !222
  %19 = getelementptr inbounds nuw %struct.refname_hash_entry, ptr %18, i32 0, i32 3
  %20 = getelementptr inbounds [0 x i8], ptr %19, i64 0, i64 0
  %21 = load ptr, ptr %5, align 8, !tbaa !11
  %22 = load i64, ptr %9, align 8, !tbaa !173
  call void @llvm.memcpy.p0.p0.i64(ptr align 8 %20, ptr align 1 %21, i64 %22, i1 false)
  call void @llvm.lifetime.end.p0(i64 8, ptr %9) #11
  br label %23

23:                                               ; preds = %12
  br label %24

24:                                               ; preds = %23
  %25 = load ptr, ptr %7, align 8, !tbaa !222
  %26 = getelementptr inbounds nuw %struct.refname_hash_entry, ptr %25, i32 0, i32 0
  %27 = load ptr, ptr %5, align 8, !tbaa !11
  %28 = call i32 @strhash(ptr noundef %27)
  call void @hashmap_entry_init(ptr noundef %26, i32 noundef %28)
  %29 = load ptr, ptr %7, align 8, !tbaa !222
  %30 = getelementptr inbounds nuw %struct.refname_hash_entry, ptr %29, i32 0, i32 1
  %31 = load ptr, ptr %6, align 8, !tbaa !84
  call void @oidcpy(ptr noundef %30, ptr noundef %31)
  %32 = load ptr, ptr %4, align 8, !tbaa !257
  %33 = load ptr, ptr %7, align 8, !tbaa !222
  %34 = getelementptr inbounds nuw %struct.refname_hash_entry, ptr %33, i32 0, i32 0
  call void @hashmap_add(ptr noundef %32, ptr noundef %34)
  %35 = load ptr, ptr %7, align 8, !tbaa !222
  call void @llvm.lifetime.end.p0(i64 8, ptr %8) #11
  call void @llvm.lifetime.end.p0(i64 8, ptr %7) #11
  ret ptr %35
}