; Function Attrs: nounwind uwtable
define internal fastcc ptr @refname_hash_add(ptr noundef %0, ptr noundef %1, ptr noundef readonly captures(none) %2) unnamed_addr #0 {
  %4 = tail call i64 @strlen(ptr noundef nonnull dereferenceable(1) %1) #22
  %5 = icmp ugt i64 %4, -57
  br i1 %5, label %6, label %st_add.exit

6:                                                ; preds = %3
  tail call void (ptr, ...) @die(ptr noundef nonnull @.str.190, i64 noundef 56, i64 noundef %4) #21
  unreachable

st_add.exit:                                      ; preds = %3
  %7 = icmp eq i64 %4, -57
  br i1 %7, label %8, label %st_add.exit12

8:                                                ; preds = %st_add.exit
  tail call void (ptr, ...) @die(ptr noundef nonnull @.str.190, i64 noundef -1, i64 noundef 1) #21
  unreachable

st_add.exit12:                                    ; preds = %st_add.exit
  %9 = add nuw i64 %4, 57
  %10 = tail call ptr @xcalloc(i64 noundef 1, i64 noundef %9) #20
  %11 = getelementptr inbounds nuw i8, ptr %10, i64 56
  tail call void @llvm.memcpy.p0.p0.i64(ptr nonnull align 8 %11, ptr nonnull align 1 %1, i64 %4, i1 false)
  %12 = tail call i32 @strhash(ptr noundef nonnull %1) #20
  %13 = getelementptr inbounds nuw i8, ptr %10, i64 8
  store i32 %12, ptr %13, align 8, !tbaa !135
  store ptr null, ptr %10, align 8, !tbaa !136
  %14 = getelementptr inbounds nuw i8, ptr %10, i64 16
  tail call void @llvm.memcpy.p0.p0.i64(ptr noundef nonnull align 4 dereferenceable(32) %14, ptr noundef nonnull readonly align 4 dereferenceable(32) %2, i64 32, i1 false)
  %15 = getelementptr inbounds nuw i8, ptr %2, i64 32
  %16 = load i32, ptr %15, align 4, !tbaa !137
  %17 = getelementptr inbounds nuw i8, ptr %10, i64 48
  store i32 %16, ptr %17, align 4, !tbaa !137
  tail call void @hashmap_add(ptr noundef %0, ptr noundef nonnull %10) #20
  ret ptr %10
}